; Function Attrs: mustprogress uwtable
define void @_ZN5arrow16KeyValueMetadata6DeleteEl(ptr dead_on_unwind noalias writable writeonly sret(%"class.arrow::Status") align 8 captures(none) initializes((0, 8)) %0, ptr noundef nonnull align 8 dereferenceable(48) %1, i64 noundef %2) local_unnamed_addr #1 align 2 {
  %4 = load ptr, ptr %1, align 8, !tbaa !69
  %5 = getelementptr inbounds %"class.std::__cxx11::basic_string", ptr %4, i64 %2
  %6 = tail call ptr @_ZNSt6vectorINSt7__cxx1112basic_stringIcSt11char_traitsIcESaIcEEESaIS5_EE8_M_eraseEN9__gnu_cxx17__normal_iteratorIPS5_S7_EE(ptr noundef nonnull align 8 dereferenceable(24) %1, ptr %5)
  %7 = getelementptr inbounds nuw i8, ptr %1, i64 24
  %8 = load ptr, ptr %7, align 8, !tbaa !69
  %9 = getelementptr inbounds %"class.std::__cxx11::basic_string", ptr %8, i64 %2
  %10 = tail call ptr @_ZNSt6vectorINSt7__cxx1112basic_stringIcSt11char_traitsIcESaIcEEESaIS5_EE8_M_eraseEN9__gnu_cxx17__normal_iteratorIPS5_S7_EE(ptr noundef nonnull align 8 dereferenceable(24) %7, ptr %9)
  store ptr null, ptr %0, align 8, !tbaa !56, !alias.scope !70
  ret void
}